; Function Attrs: nounwind uwtable
define void @Abc_BufCollectTfoCone(ptr noundef readonly captures(none) %0, ptr noundef readonly captures(none) %1) local_unnamed_addr #2 {
  %3 = getelementptr inbounds nuw i8, ptr %0, i64 112
  %4 = load ptr, ptr %3, align 8, !tbaa !110
  %5 = getelementptr inbounds nuw i8, ptr %4, i64 4
  store i32 0, ptr %5, align 4, !tbaa !50
  %6 = getelementptr inbounds nuw i8, ptr %0, i64 16
  %7 = load ptr, ptr %6, align 8, !tbaa !87
  %8 = getelementptr inbounds nuw i8, ptr %7, i64 232
  %9 = load ptr, ptr %8, align 8, !tbaa !54
  %.not.i = icmp eq ptr %9, null
  br i1 %.not.i, label %10, label %Abc_NtkIncrementTravId.exit

10:                                               ; preds = %2
  %11 = getelementptr inbounds nuw i8, ptr %7, i64 224
  %12 = getelementptr i8, ptr %7, i64 32
  %.val.i = load ptr, ptr %12, align 8, !tbaa !3
  %13 = getelementptr i8, ptr %.val.i, i64 4
  %.val.val.i = load i32, ptr %13, align 4, !tbaa !24
  %14 = add nsw i32 %.val.val.i, 500
  %15 = load i32, ptr %11, align 8, !tbaa !51
  %.not.i.i.i = icmp slt i32 %15, %14
  br i1 %.not.i.i.i, label %16, label %Vec_IntGrow.exit.i.i

16:                                               ; preds = %10
  %17 = sext i32 %14 to i64
  %18 = shl nsw i64 %17, 2
  %19 = tail call noalias ptr @malloc(i64 noundef %18) #18
  store ptr %19, ptr %8, align 8, !tbaa !45
  store i32 %14, ptr %11, align 8, !tbaa !51
  br label %Vec_IntGrow.exit.i.i

Vec_IntGrow.exit.i.i:                             ; preds = %16, %10
  %20 = phi ptr [ %19, %16 ], [ null, %10 ]
  %21 = icmp sgt i32 %.val.val.i, -500
  br i1 %21, label %.lr.ph.i.i, label %Vec_IntFill.exit.i

.lr.ph.i.i:                                       ; preds = %Vec_IntGrow.exit.i.i
  %wide.trip.count.i.i = zext nneg i32 %14 to i64
  %22 = shl nuw nsw i64 %wide.trip.count.i.i, 2
  tail call void @llvm.memset.p0.i64(ptr align 4 %20, i8 0, i64 %22, i1 false), !tbaa !33
  br label %Vec_IntFill.exit.i

Vec_IntFill.exit.i:                               ; preds = %.lr.ph.i.i, %Vec_IntGrow.exit.i.i
  %23 = getelementptr inbounds nuw i8, ptr %7, i64 228
  store i32 %14, ptr %23, align 4, !tbaa !50
  br label %Abc_NtkIncrementTravId.exit

Abc_NtkIncrementTravId.exit:                      ; preds = %2, %Vec_IntFill.exit.i
  %24 = getelementptr inbounds nuw i8, ptr %7, i64 216
  %25 = load i32, ptr %24, align 8, !tbaa !55
  %26 = add nsw i32 %25, 1
  store i32 %26, ptr %24, align 8, !tbaa !55
  tail call void @Abc_BufCollectTfoCone_rec(ptr noundef %1, ptr noundef nonnull %4)
  ret void
}